target datalayout = "e-m:e-p270:32:32-p271:32:32-p272:64:64-i64:64-i128:128-f80:128-n8:16:32:64-S128"
target triple = "x86_64-pc-linux-gnu"

%struct.DdManager = type { %struct.DdNode, ptr, ptr, ptr, ptr, ptr, ptr, ptr, i32, i32, double, double, double, i32, i32, i32, i32, i32, i32, ptr, ptr, %struct.DdSubtable, i32, i32, i32, i32, i32, i32, i32, double, i32, i32, i32, ptr, i64, double, i32, ptr, ptr, ptr, ptr, ptr, ptr, ptr, i32, ptr, ptr, ptr, ptr, ptr, ptr, i32, i32, i32, double, i32, i32, i32, i32, double, double, i32, i32, i32, i32, i32, i32, i32, i32, i32, ptr, ptr, i32, i32, i32, i32, i32, i32, ptr, ptr, ptr, ptr, ptr, ptr, ptr, ptr, i32, i64, i64, i64, i32, i64, i64, double, double, double, double, double, double, i32, ptr, ptr, i64 }
%struct.DdNode = type { i32, i32, ptr, %union.anon, i64 }
%union.anon = type { %struct.DdChildren }
%struct.DdChildren = type { ptr, ptr }
%struct.DdSubtable = type { ptr, i32, i32, i32, i32, i32, i32, i32, i32, i32, i32, i32 }
%struct.Dec_Graph_t_ = type { i32, i32, i32, i32, ptr, %struct.Dec_Edge_t_ }
%struct.Dec_Edge_t_ = type { i32 }
%struct.Dec_Node_t_ = type { %struct.Dec_Edge_t_, %struct.Dec_Edge_t_, %union.anon.0, i32 }
%union.anon.0 = type { ptr }

; Function Attrs: inlinehint nounwind uwtable
define internal i32 @Dec_GraphNodeInt(ptr noundef %0, ptr noundef %1) #2 {
  %3 = alloca ptr, align 8
  %4 = alloca ptr, align 8
  store ptr %0, ptr %3, align 8, !tbaa !8
  store ptr %1, ptr %4, align 8, !tbaa !10
  %5 = load ptr, ptr %4, align 8, !tbaa !10
  %6 = load ptr, ptr %3, align 8, !tbaa !8
  %7 = getelementptr inbounds nuw %struct.Dec_Graph_t_, ptr %6, i32 0, i32 4
  %8 = load ptr, ptr %7, align 8, !tbaa !42
  %9 = ptrtoint ptr %5 to i64
  %10 = ptrtoint ptr %8 to i64
  %11 = sub i64 %9, %10
  %12 = sdiv exact i64 %11, 24
  %13 = trunc i64 %12 to i32
  ret i32 %13
}

; Function Attrs: inlinehint nounwind uwtable
define internal ptr @Dec_GraphVar(ptr noundef %0) #2 {
  %2 = alloca ptr, align 8
  store ptr %0, ptr %2, align 8, !tbaa !8
  %3 = load ptr, ptr %2, align 8, !tbaa !8
  %4 = load ptr, ptr %2, align 8, !tbaa !8
  %5 = getelementptr inbounds nuw %struct.Dec_Graph_t_, ptr %4, i32 0, i32 5
  %6 = load i32, ptr %5, align 8
  %7 = lshr i32 %6, 1
  %8 = and i32 %7, 1073741823
  %9 = call ptr @Dec_GraphNode(ptr noundef %3, i32 noundef %8)
  ret ptr %9
}

; Function Attrs: inlinehint nounwind uwtable
define internal ptr @Dec_GraphNode(ptr noundef %0, i32 noundef %1) #2 {
  %3 = alloca ptr, align 8
  %4 = alloca i32, align 4
  store ptr %0, ptr %3, align 8, !tbaa !8
  store i32 %1, ptr %4, align 4, !tbaa !30
  %5 = load ptr, ptr %3, align 8, !tbaa !8
  %6 = getelementptr inbounds nuw %struct.Dec_Graph_t_, ptr %5, i32 0, i32 4
  %7 = load ptr, ptr %6, align 8, !tbaa !42
  %8 = load i32, ptr %4, align 4, !tbaa !30
  %9 = sext i32 %8 to i64
  %10 = getelementptr inbounds %struct.Dec_Node_t_, ptr %7, i64 %9
  ret ptr %10
}

; Function Attrs: inlinehint nounwind uwtable
define internal i32 @Dec_GraphVarInt(ptr noundef %0) #2 {
  %2 = alloca ptr, align 8
  store ptr %0, ptr %2, align 8, !tbaa !8
  %3 = load ptr, ptr %2, align 8, !tbaa !8
  %4 = load ptr, ptr %2, align 8, !tbaa !8
  %5 = call ptr @Dec_GraphVar(ptr noundef %4)
  %6 = call i32 @Dec_GraphNodeInt(ptr noundef %3, ptr noundef %5)
  ret i32 %6
}

; Function Attrs: inlinehint nounwind uwtable
define internal i32 @Dec_GraphIsVar(ptr noundef %0) #2 {
  %2 = alloca ptr, align 8
  store ptr %0, ptr %2, align 8, !tbaa !8
  %3 = load ptr, ptr %2, align 8, !tbaa !8
  %4 = getelementptr inbounds nuw %struct.Dec_Graph_t_, ptr %3, i32 0, i32 5
  %5 = load i32, ptr %4, align 8
  %6 = lshr i32 %5, 1
  %7 = and i32 %6, 1073741823
  %8 = load ptr, ptr %2, align 8, !tbaa !8
  %9 = getelementptr inbounds nuw %struct.Dec_Graph_t_, ptr %8, i32 0, i32 1
  %10 = load i32, ptr %9, align 4, !tbaa !31
  %11 = icmp ult i32 %7, %10
  %12 = zext i1 %11 to i32
  ret i32 %12
}

; Function Attrs: inlinehint nounwind uwtable
define internal i32 @Dec_GraphIsComplement(ptr noundef %0) #2 {
  %2 = alloca ptr, align 8
  store ptr %0, ptr %2, align 8, !tbaa !8
  %3 = load ptr, ptr %2, align 8, !tbaa !8
  %4 = getelementptr inbounds nuw %struct.Dec_Graph_t_, ptr %3, i32 0, i32 5
  %5 = load i32, ptr %4, align 8
  %6 = and i32 %5, 1
  ret i32 %6
}

; Function Attrs: inlinehint nounwind uwtable
define internal i32 @Dec_GraphIsConst(ptr noundef %0) #2 {
  %2 = alloca ptr, align 8
  store ptr %0, ptr %2, align 8, !tbaa !8
  %3 = load ptr, ptr %2, align 8, !tbaa !8
  %4 = getelementptr inbounds nuw %struct.Dec_Graph_t_, ptr %3, i32 0, i32 0
  %5 = load i32, ptr %4, align 8, !tbaa !41
  ret i32 %5
}

; Function Attrs: nounwind uwtable
define ptr @Dec_GraphDeriveBdd(ptr noundef %0, ptr noundef %1) #0 {
  %3 = alloca ptr, align 8
  %4 = alloca ptr, align 8
  %5 = alloca ptr, align 8
  %6 = alloca ptr, align 8
  %7 = alloca ptr, align 8
  %8 = alloca ptr, align 8
  %9 = alloca ptr, align 8
  %10 = alloca i32, align 4
  %11 = alloca i32, align 4
  store ptr %0, ptr %4, align 8, !tbaa !3
  store ptr %1, ptr %5, align 8, !tbaa !8
  call void @llvm.lifetime.start.p0(i64 8, ptr %6) #5
  call void @llvm.lifetime.start.p0(i64 8, ptr %7) #5
  call void @llvm.lifetime.start.p0(i64 8, ptr %8) #5
  call void @llvm.lifetime.start.p0(i64 8, ptr %9) #5
  store ptr null, ptr %9, align 8, !tbaa !10
  call void @llvm.lifetime.start.p0(i64 4, ptr %10) #5
  %12 = load ptr, ptr %5, align 8, !tbaa !8
  %13 = call i32 @Dec_GraphIsConst(ptr noundef %12)
  %14 = icmp ne i32 %13, 0
  br i1 %14, label %15, label %25

15:                                               ; preds = %2
  %16 = load ptr, ptr %4, align 8, !tbaa !3
  %17 = getelementptr inbounds nuw %struct.DdManager, ptr %16, i32 0, i32 1
  %18 = load ptr, ptr %17, align 8, !tbaa !12
  %19 = ptrtoint ptr %18 to i64
  %20 = load ptr, ptr %5, align 8, !tbaa !8
  %21 = call i32 @Dec_GraphIsComplement(ptr noundef %20)
  %22 = sext i32 %21 to i64
  %23 = xor i64 %19, %22
  %24 = inttoptr i64 %23 to ptr
  store ptr %24, ptr %3, align 8
  store i32 1, ptr %11, align 4
  br label %162

25:                                               ; preds = %2
  %26 = load ptr, ptr %5, align 8, !tbaa !8
  %27 = call i32 @Dec_GraphIsVar(ptr noundef %26)
  %28 = icmp ne i32 %27, 0
  br i1 %28, label %29, label %40

29:                                               ; preds = %25
  %30 = load ptr, ptr %4, align 8, !tbaa !3
  %31 = load ptr, ptr %5, align 8, !tbaa !8
  %32 = call i32 @Dec_GraphVarInt(ptr noundef %31)
  %33 = call ptr @Cudd_bddIthVar(ptr noundef %30, i32 noundef %32)
  %34 = ptrtoint ptr %33 to i64
  %35 = load ptr, ptr %5, align 8, !tbaa !8
  %36 = call i32 @Dec_GraphIsComplement(ptr noundef %35)
  %37 = sext i32 %36 to i64
  %38 = xor i64 %34, %37
  %39 = inttoptr i64 %38 to ptr
  store ptr %39, ptr %3, align 8
  store i32 1, ptr %11, align 4
  br label %162

40:                                               ; preds = %25
  store i32 0, ptr %10, align 4, !tbaa !30
  br label %41

41:                                               ; preds = %59, %40
  %42 = load i32, ptr %10, align 4, !tbaa !30
  %43 = load ptr, ptr %5, align 8, !tbaa !8
  %44 = getelementptr inbounds nuw %struct.Dec_Graph_t_, ptr %43, i32 0, i32 1
  %45 = load i32, ptr %44, align 4, !tbaa !31
  %46 = icmp slt i32 %42, %45
  br i1 %46, label %47, label %51

47:                                               ; preds = %41
  %48 = load ptr, ptr %5, align 8, !tbaa !8
  %49 = load i32, ptr %10, align 4, !tbaa !30
  %50 = call ptr @Dec_GraphNode(ptr noundef %48, i32 noundef %49)
  store ptr %50, ptr %9, align 8, !tbaa !10
  br label %51

51:                                               ; preds = %47, %41
  %52 = phi i1 [ false, %41 ], [ true, %47 ]
  br i1 %52, label %53, label %62

53:                                               ; preds = %51
  %54 = load ptr, ptr %4, align 8, !tbaa !3
  %55 = load i32, ptr %10, align 4, !tbaa !30
  %56 = call ptr @Cudd_bddIthVar(ptr noundef %54, i32 noundef %55)
  %57 = load ptr, ptr %9, align 8, !tbaa !10
  %58 = getelementptr inbounds nuw %struct.Dec_Node_t_, ptr %57, i32 0, i32 2
  store ptr %56, ptr %58, align 8, !tbaa !34
  br label %59

59:                                               ; preds = %53
  %60 = load i32, ptr %10, align 4, !tbaa !30
  %61 = add nsw i32 %60, 1
  store i32 %61, ptr %10, align 4, !tbaa !30
  br label %41, !llvm.loop !35

62:                                               ; preds = %51
  %63 = load ptr, ptr %5, align 8, !tbaa !8
  %64 = getelementptr inbounds nuw %struct.Dec_Graph_t_, ptr %63, i32 0, i32 1
  %65 = load i32, ptr %64, align 4, !tbaa !31
  store i32 %65, ptr %10, align 4, !tbaa !30
  br label %66

66:                                               ; preds = %122, %62
  %67 = load i32, ptr %10, align 4, !tbaa !30
  %68 = load ptr, ptr %5, align 8, !tbaa !8
  %69 = getelementptr inbounds nuw %struct.Dec_Graph_t_, ptr %68, i32 0, i32 2
  %70 = load i32, ptr %69, align 8, !tbaa !37
  %71 = icmp slt i32 %67, %70
  br i1 %71, label %72, label %76

72:                                               ; preds = %66
  %73 = load ptr, ptr %5, align 8, !tbaa !8
  %74 = load i32, ptr %10, align 4, !tbaa !30
  %75 = call ptr @Dec_GraphNode(ptr noundef %73, i32 noundef %74)
  store ptr %75, ptr %9, align 8, !tbaa !10
  br label %76

76:                                               ; preds = %72, %66
  %77 = phi i1 [ false, %66 ], [ true, %72 ]
  br i1 %77, label %78, label %125

78:                                               ; preds = %76
  %79 = load ptr, ptr %5, align 8, !tbaa !8
  %80 = load ptr, ptr %9, align 8, !tbaa !10
  %81 = getelementptr inbounds nuw %struct.Dec_Node_t_, ptr %80, i32 0, i32 0
  %82 = load i32, ptr %81, align 8
  %83 = lshr i32 %82, 1
  %84 = and i32 %83, 1073741823
  %85 = call ptr @Dec_GraphNode(ptr noundef %79, i32 noundef %84)
  %86 = getelementptr inbounds nuw %struct.Dec_Node_t_, ptr %85, i32 0, i32 2
  %87 = load ptr, ptr %86, align 8, !tbaa !34
  %88 = ptrtoint ptr %87 to i64
  %89 = load ptr, ptr %9, align 8, !tbaa !10
  %90 = getelementptr inbounds nuw %struct.Dec_Node_t_, ptr %89, i32 0, i32 0
  %91 = load i32, ptr %90, align 8
  %92 = and i32 %91, 1
  %93 = zext i32 %92 to i64
  %94 = xor i64 %88, %93
  %95 = inttoptr i64 %94 to ptr
  store ptr %95, ptr %7, align 8, !tbaa !38
  %96 = load ptr, ptr %5, align 8, !tbaa !8
  %97 = load ptr, ptr %9, align 8, !tbaa !10
  %98 = getelementptr inbounds nuw %struct.Dec_Node_t_, ptr %97, i32 0, i32 1
  %99 = load i32, ptr %98, align 4
  %100 = lshr i32 %99, 1
  %101 = and i32 %100, 1073741823
  %102 = call ptr @Dec_GraphNode(ptr noundef %96, i32 noundef %101)
  %103 = getelementptr inbounds nuw %struct.Dec_Node_t_, ptr %102, i32 0, i32 2
  %104 = load ptr, ptr %103, align 8, !tbaa !34
  %105 = ptrtoint ptr %104 to i64
  %106 = load ptr, ptr %9, align 8, !tbaa !10
  %107 = getelementptr inbounds nuw %struct.Dec_Node_t_, ptr %106, i32 0, i32 1
  %108 = load i32, ptr %107, align 4
  %109 = and i32 %108, 1
  %110 = zext i32 %109 to i64
  %111 = xor i64 %105, %110
  %112 = inttoptr i64 %111 to ptr
  store ptr %112, ptr %8, align 8, !tbaa !38
  %113 = load ptr, ptr %4, align 8, !tbaa !3
  %114 = load ptr, ptr %7, align 8, !tbaa !38
  %115 = load ptr, ptr %8, align 8, !tbaa !38
  %116 = call ptr @Cudd_bddAnd(ptr noundef %113, ptr noundef %114, ptr noundef %115)
  %117 = load ptr, ptr %9, align 8, !tbaa !10
  %118 = getelementptr inbounds nuw %struct.Dec_Node_t_, ptr %117, i32 0, i32 2
  store ptr %116, ptr %118, align 8, !tbaa !34
  %119 = load ptr, ptr %9, align 8, !tbaa !10
  %120 = getelementptr inbounds nuw %struct.Dec_Node_t_, ptr %119, i32 0, i32 2
  %121 = load ptr, ptr %120, align 8, !tbaa !34
  call void @Cudd_Ref(ptr noundef %121)
  br label %122

122:                                              ; preds = %78
  %123 = load i32, ptr %10, align 4, !tbaa !30
  %124 = add nsw i32 %123, 1
  store i32 %124, ptr %10, align 4, !tbaa !30
  br label %66, !llvm.loop !39

125:                                              ; preds = %76
  %126 = load ptr, ptr %9, align 8, !tbaa !10
  %127 = getelementptr inbounds nuw %struct.Dec_Node_t_, ptr %126, i32 0, i32 2
  %128 = load ptr, ptr %127, align 8, !tbaa !34
  store ptr %128, ptr %6, align 8, !tbaa !38
  %129 = load ptr, ptr %6, align 8, !tbaa !38
  call void @Cudd_Ref(ptr noundef %129)
  %130 = load ptr, ptr %5, align 8, !tbaa !8
  %131 = getelementptr inbounds nuw %struct.Dec_Graph_t_, ptr %130, i32 0, i32 1
  %132 = load i32, ptr %131, align 4, !tbaa !31
  store i32 %132, ptr %10, align 4, !tbaa !30
  br label %133

133:                                              ; preds = %150, %125
  %134 = load i32, ptr %10, align 4, !tbaa !30
  %135 = load ptr, ptr %5, align 8, !tbaa !8
  %136 = getelementptr inbounds nuw %struct.Dec_Graph_t_, ptr %135, i32 0, i32 2
  %137 = load i32, ptr %136, align 8, !tbaa !37
  %138 = icmp slt i32 %134, %137
  br i1 %138, label %139, label %143

139:                                              ; preds = %133
  %140 = load ptr, ptr %5, align 8, !tbaa !8
  %141 = load i32, ptr %10, align 4, !tbaa !30
  %142 = call ptr @Dec_GraphNode(ptr noundef %140, i32 noundef %141)
  store ptr %142, ptr %9, align 8, !tbaa !10
  br label %143

143:                                              ; preds = %139, %133
  %144 = phi i1 [ false, %133 ], [ true, %139 ]
  br i1 %144, label %145, label %153

145:                                              ; preds = %143
  %146 = load ptr, ptr %4, align 8, !tbaa !3
  %147 = load ptr, ptr %9, align 8, !tbaa !10
  %148 = getelementptr inbounds nuw %struct.Dec_Node_t_, ptr %147, i32 0, i32 2
  %149 = load ptr, ptr %148, align 8, !tbaa !34
  call void @Cudd_RecursiveDeref(ptr noundef %146, ptr noundef %149)
  br label %150

150:                                              ; preds = %145
  %151 = load i32, ptr %10, align 4, !tbaa !30
  %152 = add nsw i32 %151, 1
  store i32 %152, ptr %10, align 4, !tbaa !30
  br label %133, !llvm.loop !40

153:                                              ; preds = %143
  %154 = load ptr, ptr %6, align 8, !tbaa !38
  call void @Cudd_Deref(ptr noundef %154)
  %155 = load ptr, ptr %6, align 8, !tbaa !38
  %156 = ptrtoint ptr %155 to i64
  %157 = load ptr, ptr %5, align 8, !tbaa !8
  %158 = call i32 @Dec_GraphIsComplement(ptr noundef %157)
  %159 = sext i32 %158 to i64
  %160 = xor i64 %156, %159
  %161 = inttoptr i64 %160 to ptr
  store ptr %161, ptr %3, align 8
  store i32 1, ptr %11, align 4
  br label %162

162:                                              ; preds = %153, %29, %15
  call void @llvm.lifetime.end.p0(i64 4, ptr %10) #5
  call void @llvm.lifetime.end.p0(i64 8, ptr %9) #5
  call void @llvm.lifetime.end.p0(i64 8, ptr %8) #5
  call void @llvm.lifetime.end.p0(i64 8, ptr %7) #5
  call void @llvm.lifetime.end.p0(i64 8, ptr %6) #5
  %163 = load ptr, ptr %3, align 8
  ret ptr %163
}