; Function Attrs: nounwind uwtable
define ptr @Dec_GraphDeriveBdd(ptr noundef %0, ptr noundef readonly captures(none) %1) local_unnamed_addr #0 {
  %.val = load i32, ptr %1, align 8, !tbaa !3
  %.not = icmp eq i32 %.val, 0
  %3 = getelementptr i8, ptr %1, i64 24
  br i1 %.not, label %7, label %4

4:                                                ; preds = %2
  %5 = getelementptr inbounds nuw i8, ptr %0, i64 40
  %6 = load ptr, ptr %5, align 8, !tbaa !11
  br label %69

7:                                                ; preds = %2
  %8 = getelementptr i8, ptr %1, i64 4
  %.val57 = load i32, ptr %8, align 4, !tbaa !28
  %.val58 = load i32, ptr %3, align 8
  %9 = lshr i32 %.val58, 1
  %10 = and i32 %9, 1073741823
  %.not66 = icmp ult i32 %10, %.val57
  br i1 %.not66, label %12, label %.preheader

.preheader:                                       ; preds = %7
  %.not88 = icmp eq i32 %.val57, 0
  br i1 %.not88, label %.critedge.preheader, label %.lr.ph

.lr.ph:                                           ; preds = %.preheader
  %11 = getelementptr i8, ptr %1, i64 16
  br label %19

12:                                               ; preds = %7
  %13 = tail call ptr @Cudd_bddIthVar(ptr noundef %0, i32 noundef %10) #3
  br label %69

.critedge.preheader:                              ; preds = %19, %.preheader
  %.049.lcssa = phi ptr [ null, %.preheader ], [ %20, %19 ]
  %.lcssa67 = phi i32 [ 0, %.preheader ], [ %24, %19 ]
  %14 = getelementptr inbounds nuw i8, ptr %1, i64 8
  %15 = load i32, ptr %14, align 8, !tbaa !29
  %16 = icmp slt i32 %.lcssa67, %15
  br i1 %16, label %.lr.ph71, label %.critedge2

.lr.ph71:                                         ; preds = %.critedge.preheader
  %17 = getelementptr i8, ptr %1, i64 16
  %18 = sext i32 %.lcssa67 to i64
  br label %.critedge

19:                                               ; preds = %.lr.ph, %19
  %indvars.iv = phi i64 [ 0, %.lr.ph ], [ %indvars.iv.next, %19 ]
  %.val59 = load ptr, ptr %11, align 8, !tbaa !30
  %20 = getelementptr inbounds nuw %struct.Dec_Node_t_, ptr %.val59, i64 %indvars.iv
  %21 = trunc nuw nsw i64 %indvars.iv to i32
  %22 = tail call ptr @Cudd_bddIthVar(ptr noundef %0, i32 noundef %21) #3
  %23 = getelementptr inbounds nuw i8, ptr %20, i64 8
  store ptr %22, ptr %23, align 8, !tbaa !31
  %indvars.iv.next = add nuw nsw i64 %indvars.iv, 1
  %24 = load i32, ptr %8, align 4, !tbaa !28
  %25 = sext i32 %24 to i64
  %26 = icmp slt i64 %indvars.iv.next, %25
  br i1 %26, label %19, label %.critedge.preheader, !llvm.loop !32

.critedge:                                        ; preds = %.lr.ph71, %.critedge
  %indvars.iv78 = phi i64 [ %18, %.lr.ph71 ], [ %indvars.iv.next79, %.critedge ]
  %.val60 = load ptr, ptr %17, align 8, !tbaa !30
  %27 = getelementptr inbounds %struct.Dec_Node_t_, ptr %.val60, i64 %indvars.iv78
  %28 = load i32, ptr %27, align 8
  %29 = lshr i32 %28, 1
  %30 = and i32 %29, 1073741823
  %31 = zext nneg i32 %30 to i64
  %32 = getelementptr inbounds nuw %struct.Dec_Node_t_, ptr %.val60, i64 %31, i32 2
  %33 = load ptr, ptr %32, align 8, !tbaa !31
  %34 = ptrtoint ptr %33 to i64
  %35 = and i32 %28, 1
  %36 = zext nneg i32 %35 to i64
  %37 = xor i64 %34, %36
  %38 = inttoptr i64 %37 to ptr
  %39 = getelementptr inbounds nuw i8, ptr %27, i64 4
  %40 = load i32, ptr %39, align 4
  %41 = lshr i32 %40, 1
  %42 = and i32 %41, 1073741823
  %43 = zext nneg i32 %42 to i64
  %44 = getelementptr inbounds nuw %struct.Dec_Node_t_, ptr %.val60, i64 %43, i32 2
  %45 = load ptr, ptr %44, align 8, !tbaa !31
  %46 = ptrtoint ptr %45 to i64
  %47 = and i32 %40, 1
  %48 = zext nneg i32 %47 to i64
  %49 = xor i64 %46, %48
  %50 = inttoptr i64 %49 to ptr
  %51 = tail call ptr @Cudd_bddAnd(ptr noundef %0, ptr noundef %38, ptr noundef %50) #3
  %52 = getelementptr inbounds nuw i8, ptr %27, i64 8
  store ptr %51, ptr %52, align 8, !tbaa !31
  tail call void @Cudd_Ref(ptr noundef %51) #3
  %indvars.iv.next79 = add nsw i64 %indvars.iv78, 1
  %53 = load i32, ptr %14, align 8, !tbaa !29
  %54 = sext i32 %53 to i64
  %55 = icmp slt i64 %indvars.iv.next79, %54
  br i1 %55, label %.critedge, label %.critedge2, !llvm.loop !34

.critedge2:                                       ; preds = %.critedge, %.critedge.preheader
  %.150.lcssa = phi ptr [ %.049.lcssa, %.critedge.preheader ], [ %27, %.critedge ]
  %56 = getelementptr inbounds nuw i8, ptr %.150.lcssa, i64 8
  %57 = load ptr, ptr %56, align 8, !tbaa !31
  tail call void @Cudd_Ref(ptr noundef %57) #3
  %58 = load i32, ptr %8, align 4, !tbaa !28
  %59 = load i32, ptr %14, align 8, !tbaa !29
  %60 = icmp slt i32 %58, %59
  br i1 %60, label %.lr.ph74, label %.critedge4

.lr.ph74:                                         ; preds = %.critedge2
  %61 = getelementptr i8, ptr %1, i64 16
  %62 = sext i32 %58 to i64
  br label %63

63:                                               ; preds = %.lr.ph74, %63
  %indvars.iv81 = phi i64 [ %62, %.lr.ph74 ], [ %indvars.iv.next82, %63 ]
  %.val63 = load ptr, ptr %61, align 8, !tbaa !30
  %64 = getelementptr inbounds %struct.Dec_Node_t_, ptr %.val63, i64 %indvars.iv81, i32 2
  %65 = load ptr, ptr %64, align 8, !tbaa !31
  tail call void @Cudd_RecursiveDeref(ptr noundef %0, ptr noundef %65) #3
  %indvars.iv.next82 = add nsw i64 %indvars.iv81, 1
  %66 = load i32, ptr %14, align 8, !tbaa !29
  %67 = sext i32 %66 to i64
  %68 = icmp slt i64 %indvars.iv.next82, %67
  br i1 %68, label %63, label %.critedge4, !llvm.loop !35

.critedge4:                                       ; preds = %63, %.critedge2
  tail call void @Cudd_Deref(ptr noundef %57) #3
  br label %69

69:                                               ; preds = %.critedge4, %12, %4
  %.sink86.in = phi ptr [ %57, %.critedge4 ], [ %13, %12 ], [ %6, %4 ]
  %.sink86 = ptrtoint ptr %.sink86.in to i64
  %.val56.sink = load i32, ptr %3, align 8
  %70 = and i32 %.val56.sink, 1
  %71 = zext nneg i32 %70 to i64
  %72 = xor i64 %71, %.sink86
  %.051 = inttoptr i64 %72 to ptr
  ret ptr %.051
}